Certificate:
    Data:
        Version: 1 (0x0)
        Serial Number:
            34:bd:0e:df:92:97:4a:2f:a9:26:df:d7:8f:3d:17:15:b4:02:ef:b4
        Signature Algorithm: NULL
        Issuer: CN = root.yourdomain.com
        Validity
            Not Before: Sep 23 13:28:30 2024 GMT
            Not After : Sep 21 13:28:30 2034 GMT
        Subject: CN = root.yourdomain.com
        Subject Public Key Info:
            Public Key Algorithm: rsaEncryption
                RSA Public-Key: (2048 bit)
                Modulus:
                    00:d3:3d:c3:4a:60:3a:47:77:47:4e:cf:be:5f:ca:
                    57:31:83:32:d7:44:c4:a3:70:fa:b3:78:cc:20:9d:
                    b4:93:46:19:19:e5:58:38:cc:26:e5:3b:5c:fe:91:
                    b0:e7:f5:54:4a:10:69:69:5b:11:d6:77:be:ce:da:
                    ac:e1:88:b8:b2:e5:8b:b7:d2:53:1f:c6:71:21:db:
                    1a:a2:60:02:fd:12:5b:05:e7:7c:91:f2:73:de:58:
                    7c:f2:0a:61:c4:e1:17:b2:71:05:b4:07:a6:81:f0:
                    71:3f:3d:5f:44:8f:0e:db:44:ed:55:82:d5:b3:92:
                    d8:8f:56:8f:34:8f:b0:67:99:69:fa:cc:6a:ce:93:
                    ed:2c:5e:45:f5:b6:f5:f0:82:3a:d2:09:56:78:ce:
                    9a:eb:79:ca:2c:02:f1:fd:af:3c:cc:ae:90:e8:2d:
                    f2:a7:52:1f:ee:bd:83:13:ba:ec:6a:6b:90:4d:89:
                    b0:13:c8:b4:d3:f4:ab:69:d0:cd:7f:95:fe:59:44:
                    0e:35:d2:ba:02:d6:11:4c:dd:bd:eb:a8:9f:6d:e2:
                    c9:2f:6a:30:05:43:61:8c:48:e1:78:37:91:78:df:
                    22:3e:20:6c:4a:31:19:20:29:6d:bd:1a:fc:e7:98:
                    f8:f5:e4:10:40:e7:95:49:49:6f:2e:a5:bb:e2:63:
                    39:51
                Exponent: 65537 (0x10001)
    Signature Algorithm: NULL
-----BEGIN CERTIFICATE-----
MIIDHTCCAgWgAwIBAgIUNL0O35KXSi+pJt/Xjz0XFbQC77QwDQYJKoZIhvcNAQEL
BQAwHjEcMBoGA1UEAwwTcm9vdC55b3VyZG9tYWluLmNvbTAeFw0yNDA5MjMxMzI4
MzBaFw0zNDA5MjExMzI4MzBaMB4xHDAaBgNVBAMME3Jvb3QueW91cmRvbWFpbi5j
b20wggEiMA0GCSqGSIb3DQEBAQUAA4IBDwAwggEKAoIBAQDTPcNKYDpHd0dOz75f
ylcxgzLXRMSjcPqzeMwgnbSTRhkZ5Vg4zCblO1z+kbDn9VRKEGlpWxHWd77O2qzh
iLiy5Yu30lMfxnEh2xqiYAL9ElsF53yR8nPeWHzyCmHE4ReycQW0B6aB8HE/PV9E
jw7bRO1VgtWzktiPVo80j7BnmWn6zGrOk+0sXkX1tvXwgjrSCVZ4zprrecosAvH9
rzzMrpDoLfKnUh/uvYMTuuxqa5BNibATyLTT9Ktp0M1/lf5ZRA410roC1hFM3b3r
qJ9t4skvajAFQ2GMSOF4N5F43yI+IGxKMRkgKW29GvznmPj15BBA55VJSW8upbvi
YzlRAgMBAAGjUzBRMB0GA1UdDgQWBBSJ23r4XLlCQmOzERSLZCfi6qd+jjAfBgNV
HSMEGDAWgBSJ23r4XLlCQmOzERSLZCfi6qd+jjAPBgNVHRMBAf8EBTADAQH/MA0G
CSqGSIb3DQEBCwUAA4IBAQABEE85FZTlhK/RKQDr5XKFw2IK2A+O3tlzAU90ErM6
vySP3y0RvasYbjCAYPxybAzXT/PPStFFib003B9BIaGQ4gMMs9Mr8QjrRn7BaFI2
6z7gTVXuQNpo2yqW8WEnk7q09001jvKVoCe5DXdepa+wo+zMHvYLQ0KNZ+Dyl/Hg
06IwXnuI6V/YkV235HB2j6VjJw97iOnE3u33yc7DIaC3Ps9W+H25hmHlw0/jPu7h
JnR+PpPQPty0PM1icHI+R45Bem8lnhB/9UHgOptVBjpsbG1J4vkZDYFDpwGtuVTv
UgGAe1wgl/MYofbHwuFI8KeCda9XvyPkxvHG0A6B9axi
-----END CERTIFICATE-----
