Certificate:
    Data:
        Version: 1 (0x0)
        Serial Number:
            22:44:fb:98:94:f4:12:11:38:bc:24:7b:05:8c:86:7f:1e:bc:86:2f
        Signature Algorithm: NULL
        Issuer: CN = dbhost.yourdomain.com
        Validity
            Not Before: Sep 23 13:28:31 2024 GMT
            Not After : Sep 23 13:28:31 2025 GMT
        Subject: CN = dbhost.yourdomain.com
        Subject Public Key Info:
            Public Key Algorithm: rsaEncryption
                RSA Public-Key: (2048 bit)
                Modulus:
                    00:e6:b0:bf:a8:58:67:0a:0c:1f:4d:e9:72:4a:2e:
                    2f:4a:fd:3e:5f:f5:66:89:6a:57:87:cc:24:ec:54:
                    6c:f6:a7:7b:56:b6:7e:73:f4:3b:82:5a:29:fb:49:
                    4e:08:8a:76:95:b0:3c:09:05:a2:e1:cd:99:02:86:
                    2c:24:8c:67:42:19:e0:8b:df:37:3d:34:8a:a2:ea:
                    b9:60:7d:93:e4:bd:b1:d3:96:32:93:ef:d1:b9:b9:
                    ad:37:b4:c5:7e:9a:5e:c8:35:86:6c:29:24:5e:d2:
                    7e:b8:f6:45:96:80:92:c9:8d:33:e9:29:9e:ee:cf:
                    46:2b:aa:b9:e4:46:02:72:61:42:06:0a:3f:c9:9a:
                    46:b2:30:48:84:d5:ac:5e:db:6d:f3:64:29:ef:69:
                    f1:5d:88:18:85:0c:05:cb:e2:70:ab:cb:b3:b7:31:
                    6b:0b:f9:93:53:a1:eb:d0:6d:0f:07:be:f5:0d:4d:
                    26:91:8d:3f:17:82:ee:04:30:85:b0:d0:b7:48:6b:
                    5f:c1:0b:31:a9:2c:d8:65:23:09:61:64:6c:51:35:
                    f7:9f:3e:10:45:9f:eb:9b:28:8d:3d:56:a5:ec:33:
                    d0:15:21:11:fc:2f:43:ad:56:8b:ba:ca:b2:ce:d6:
                    18:4a:b5:05:1d:ce:08:e3:95:a5:52:cc:31:37:eb:
                    0f:13
                Exponent: 65537 (0x10001)
    Signature Algorithm: NULL
-----BEGIN CERTIFICATE-----
MIICxTCCAa0CFFzlxUSXuO4YdoVDOY/ckE0nwEZpMA0GCSqGSIb3DQEBCwUAMB4x
HDAaBgNVBAMME3Jvb3QueW91cmRvbWFpbi5jb20wHhcNMjQwOTIzMTMyODMxWhcN
MjUwOTIzMTMyODMxWjAgMR4wHAYDVQQDDBVkYmhvc3QueW91cmRvbWFpbi5jb20w
ggEiMA0GCSqGSIb3DQEBAQUAA4IBDwAwggEKAoIBAQDmsL+oWGcKDB9N6XJKLi9K
/T5f9WaJaleHzCTsVGz2p3tWtn5z9DuCWin7SU4IinaVsDwJBaLhzZkChiwkjGdC
GeCL3zc9NIqi6rlgfZPkvbHTljKT79G5ua03tMV+ml7INYZsKSRe0n649kWWgJLJ
jTPpKZ7uz0YrqrnkRgJyYUIGCj/JmkayMEiE1axe223zZCnvafFdiBiFDAXL4nCr
y7O3MWsL+ZNToevQbQ8HvvUNTSaRjT8Xgu4EMIWw0LdIa1/BCzGpLNhlIwlhZGxR
NfefPhBFn+ubKI09VqXsM9AVIRH8L0OtVou6yrLO1hhKtQUdzgjjlaVSzDE36w8T
AgMBAAEwDQYJKoZIhvcNAQELBQADggEBAI4fmKSdIwJZsDz41DDQcItYz0QcL2Ag
ByVle8Xi29koBDabX64cEjzuCjOKiUlWS5ZjcAp+Da8x+jbBDwk2hb+7oUuoxE3O
SMu6f2aTKRyu1Cj+kFd5ocTmFPgwOjE2vypBCP8azBGp0QI9fDP0DWoT6m+st1z7
Ij+hxCo8+51gjeAAV1syltE2LyZd2sfkbYvO2b9bHMGaiamjO4m63u8NDIgol9Rf
QUinUi52VEmlXB78K6n9wrV/XObEWIw9vu8+FnPFMUaFhWAX1STUfpLv5MceRkZx
eWulid3C0Xq1uMd/pCQ0Omv08/YQ0YPV5YBQ51izMwJqhUi2MmLPXR4=
-----END CERTIFICATE-----
